target datalayout = "e-m:e-p270:32:32-p271:32:32-p272:64:64-i64:64-i128:128-f80:128-n8:16:32:64-S128"
target triple = "x86_64-pc-linux-gnu"

%struct._zval_struct = type { %union._zend_value, %union.anon, %union.anon.2 }
%union._zend_value = type { i64 }
%union.anon = type { i32 }
%union.anon.2 = type { i32 }
%struct._zend_execute_data = type { ptr, ptr, ptr, ptr, %struct._zval_struct, ptr, ptr, ptr, ptr }
%struct.anon.0 = type { i8, i8, %union.anon.1 }
%union.anon.1 = type { i16 }

; Function Attrs: alwaysinline nounwind uwtable
define internal zeroext i8 @zval_get_type(ptr noundef %0) #5 {
  %2 = alloca ptr, align 8
  store ptr %0, ptr %2, align 8, !tbaa !67
  %3 = load ptr, ptr %2, align 8, !tbaa !67
  %4 = getelementptr inbounds nuw %struct._zval_struct, ptr %3, i32 0, i32 1
  %5 = getelementptr inbounds nuw %struct.anon.0, ptr %4, i32 0, i32 0
  %6 = load i8, ptr %5, align 8, !tbaa !31
  ret i8 %6
}

; Function Attrs: alwaysinline nounwind uwtable
define internal zeroext i1 @zend_parse_arg_str_ex(ptr noundef %0, ptr noundef %1, i1 noundef zeroext %2, i32 noundef %3, i1 noundef zeroext %4) #5 {
  %6 = alloca i1, align 1
  %7 = alloca ptr, align 8
  %8 = alloca ptr, align 8
  %9 = alloca i8, align 1
  %10 = alloca i32, align 4
  %11 = alloca i8, align 1
  store ptr %0, ptr %7, align 8, !tbaa !67
  store ptr %1, ptr %8, align 8, !tbaa !77
  %12 = zext i1 %2 to i8
  store i8 %12, ptr %9, align 1, !tbaa !70
  store i32 %3, ptr %10, align 4, !tbaa !4
  %13 = zext i1 %4 to i8
  store i8 %13, ptr %11, align 1, !tbaa !70
  %14 = load ptr, ptr %7, align 8, !tbaa !67
  %15 = call zeroext i8 @zval_get_type(ptr noundef %14)
  %16 = zext i8 %15 to i32
  %17 = icmp eq i32 %16, 6
  %18 = xor i1 %17, true
  %19 = xor i1 %18, true
  %20 = zext i1 %19 to i32
  %21 = sext i32 %20 to i64
  %22 = call i64 @llvm.expect.i64(i64 %21, i64 1)
  %23 = icmp ne i64 %22, 0
  br i1 %23, label %24, label %29

24:                                               ; preds = %5
  %25 = load ptr, ptr %7, align 8, !tbaa !67
  %26 = getelementptr inbounds nuw %struct._zval_struct, ptr %25, i32 0, i32 0
  %27 = load ptr, ptr %26, align 8, !tbaa !31
  %28 = load ptr, ptr %8, align 8, !tbaa !77
  store ptr %27, ptr %28, align 8, !tbaa !32
  br label %53

29:                                               ; preds = %5
  %30 = load i8, ptr %9, align 1, !tbaa !70, !range !71, !noundef !72
  %31 = trunc i8 %30 to i1
  br i1 %31, label %32, label %39

32:                                               ; preds = %29
  %33 = load ptr, ptr %7, align 8, !tbaa !67
  %34 = call zeroext i8 @zval_get_type(ptr noundef %33)
  %35 = zext i8 %34 to i32
  %36 = icmp eq i32 %35, 1
  br i1 %36, label %37, label %39

37:                                               ; preds = %32
  %38 = load ptr, ptr %8, align 8, !tbaa !77
  store ptr null, ptr %38, align 8, !tbaa !32
  br label %52

39:                                               ; preds = %32, %29
  %40 = load i8, ptr %11, align 1, !tbaa !70, !range !71, !noundef !72
  %41 = trunc i8 %40 to i1
  br i1 %41, label %42, label %47

42:                                               ; preds = %39
  %43 = load ptr, ptr %7, align 8, !tbaa !67
  %44 = load ptr, ptr %8, align 8, !tbaa !77
  %45 = load i32, ptr %10, align 4, !tbaa !4
  %46 = call zeroext i1 @zend_flf_parse_arg_str_slow(ptr noundef %43, ptr noundef %44, i32 noundef %45)
  store i1 %46, ptr %6, align 1
  br label %54

47:                                               ; preds = %39
  %48 = load ptr, ptr %7, align 8, !tbaa !67
  %49 = load ptr, ptr %8, align 8, !tbaa !77
  %50 = load i32, ptr %10, align 4, !tbaa !4
  %51 = call zeroext i1 @zend_parse_arg_str_slow(ptr noundef %48, ptr noundef %49, i32 noundef %50)
  store i1 %51, ptr %6, align 1
  br label %54

52:                                               ; preds = %37
  br label %53

53:                                               ; preds = %52, %24
  store i1 true, ptr %6, align 1
  br label %54

54:                                               ; preds = %53, %47, %42
  %55 = load i1, ptr %6, align 1
  ret i1 %55
}

; Function Attrs: alwaysinline nounwind uwtable
define internal zeroext i1 @zend_parse_arg_str(ptr noundef %0, ptr noundef %1, i1 noundef zeroext %2, i32 noundef %3) #5 {
  %5 = alloca ptr, align 8
  %6 = alloca ptr, align 8
  %7 = alloca i8, align 1
  %8 = alloca i32, align 4
  store ptr %0, ptr %5, align 8, !tbaa !67
  store ptr %1, ptr %6, align 8, !tbaa !77
  %9 = zext i1 %2 to i8
  store i8 %9, ptr %7, align 1, !tbaa !70
  store i32 %3, ptr %8, align 4, !tbaa !4
  %10 = load ptr, ptr %5, align 8, !tbaa !67
  %11 = load ptr, ptr %6, align 8, !tbaa !77
  %12 = load i8, ptr %7, align 1, !tbaa !70, !range !71, !noundef !72
  %13 = trunc i8 %12 to i1
  %14 = load i32, ptr %8, align 4, !tbaa !4
  %15 = call zeroext i1 @zend_parse_arg_str_ex(ptr noundef %10, ptr noundef %11, i1 noundef zeroext %13, i32 noundef %14, i1 noundef zeroext false)
  ret i1 %15
}

; Function Attrs: nounwind uwtable
define hidden void @zif_defined(ptr noundef %0, ptr noundef %1) #0 {
  %3 = alloca ptr, align 8
  %4 = alloca ptr, align 8
  %5 = alloca ptr, align 8
  %6 = alloca i32, align 4
  %7 = alloca i32, align 4
  %8 = alloca i32, align 4
  %9 = alloca i32, align 4
  %10 = alloca i32, align 4
  %11 = alloca ptr, align 8
  %12 = alloca ptr, align 8
  %13 = alloca i32, align 4
  %14 = alloca ptr, align 8
  %15 = alloca i8, align 1
  %16 = alloca i8, align 1
  %17 = alloca i32, align 4
  %18 = alloca i32, align 4
  store ptr %0, ptr %3, align 8, !tbaa !66
  store ptr %1, ptr %4, align 8, !tbaa !67
  call void @llvm.lifetime.start.p0(i64 8, ptr %5) #14
  br label %19

19:                                               ; preds = %2
  call void @llvm.lifetime.start.p0(i64 4, ptr %6) #14
  store i32 0, ptr %6, align 4, !tbaa !4
  call void @llvm.lifetime.start.p0(i64 4, ptr %7) #14
  store i32 1, ptr %7, align 4, !tbaa !4
  call void @llvm.lifetime.start.p0(i64 4, ptr %8) #14
  store i32 1, ptr %8, align 4, !tbaa !4
  call void @llvm.lifetime.start.p0(i64 4, ptr %9) #14
  %20 = load ptr, ptr %3, align 8, !tbaa !66
  %21 = getelementptr inbounds nuw %struct._zend_execute_data, ptr %20, i32 0, i32 4
  %22 = getelementptr inbounds nuw %struct._zval_struct, ptr %21, i32 0, i32 2
  %23 = load i32, ptr %22, align 4, !tbaa !31
  store i32 %23, ptr %9, align 4, !tbaa !4
  call void @llvm.lifetime.start.p0(i64 4, ptr %10) #14
  store i32 0, ptr %10, align 4, !tbaa !4
  call void @llvm.lifetime.start.p0(i64 8, ptr %11) #14
  call void @llvm.lifetime.start.p0(i64 8, ptr %12) #14
  store ptr null, ptr %12, align 8, !tbaa !67
  call void @llvm.lifetime.start.p0(i64 4, ptr %13) #14
  store i32 0, ptr %13, align 4, !tbaa !4
  call void @llvm.lifetime.start.p0(i64 8, ptr %14) #14
  store ptr null, ptr %14, align 8, !tbaa !69
  call void @llvm.lifetime.start.p0(i64 1, ptr %15) #14
  store i8 0, ptr %15, align 1, !tbaa !70
  call void @llvm.lifetime.start.p0(i64 1, ptr %16) #14
  store i8 0, ptr %16, align 1, !tbaa !70
  call void @llvm.lifetime.start.p0(i64 4, ptr %17) #14
  store i32 0, ptr %17, align 4, !tbaa !4
  br label %24

24:                                               ; preds = %19
  %25 = load i32, ptr %9, align 4, !tbaa !4
  %26 = load i32, ptr %7, align 4, !tbaa !4
  %27 = icmp ult i32 %25, %26
  %28 = xor i1 %27, true
  %29 = xor i1 %28, true
  %30 = zext i1 %29 to i32
  %31 = sext i32 %30 to i64
  %32 = call i64 @llvm.expect.i64(i64 %31, i64 0)
  %33 = icmp ne i64 %32, 0
  br i1 %33, label %44, label %34

34:                                               ; preds = %24
  %35 = load i32, ptr %9, align 4, !tbaa !4
  %36 = load i32, ptr %8, align 4, !tbaa !4
  %37 = icmp ugt i32 %35, %36
  %38 = xor i1 %37, true
  %39 = xor i1 %38, true
  %40 = zext i1 %39 to i32
  %41 = sext i32 %40 to i64
  %42 = call i64 @llvm.expect.i64(i64 %41, i64 0)
  %43 = icmp ne i64 %42, 0
  br i1 %43, label %44, label %47

44:                                               ; preds = %34, %24
  %45 = load i32, ptr %7, align 4, !tbaa !4
  %46 = load i32, ptr %8, align 4, !tbaa !4
  call void @zend_wrong_parameters_count_error(i32 noundef %45, i32 noundef %46)
  store i32 1, ptr %17, align 4, !tbaa !4
  br label %111

47:                                               ; preds = %34
  %48 = load ptr, ptr %3, align 8, !tbaa !66
  %49 = getelementptr inbounds %struct._zval_struct, ptr %48, i64 4
  store ptr %49, ptr %11, align 8, !tbaa !67
  %50 = load i32, ptr %10, align 4, !tbaa !4
  %51 = add i32 %50, 1
  store i32 %51, ptr %10, align 4, !tbaa !4
  %52 = load i32, ptr %10, align 4, !tbaa !4
  %53 = load i32, ptr %7, align 4, !tbaa !4
  %54 = icmp ule i32 %52, %53
  br i1 %54, label %60, label %55

55:                                               ; preds = %47
  %56 = load i8, ptr %16, align 1, !tbaa !70, !range !71, !noundef !72
  %57 = trunc i8 %56 to i1
  %58 = zext i1 %57 to i32
  %59 = icmp eq i32 %58, 1
  br label %60

60:                                               ; preds = %55, %47
  %61 = phi i1 [ true, %47 ], [ %59, %55 ]
  call void @llvm.assume(i1 %61)
  %62 = load i32, ptr %10, align 4, !tbaa !4
  %63 = load i32, ptr %7, align 4, !tbaa !4
  %64 = icmp ugt i32 %62, %63
  br i1 %64, label %70, label %65

65:                                               ; preds = %60
  %66 = load i8, ptr %16, align 1, !tbaa !70, !range !71, !noundef !72
  %67 = trunc i8 %66 to i1
  %68 = zext i1 %67 to i32
  %69 = icmp eq i32 %68, 0
  br label %70

70:                                               ; preds = %65, %60
  %71 = phi i1 [ true, %60 ], [ %69, %65 ]
  call void @llvm.assume(i1 %71)
  %72 = load i8, ptr %16, align 1, !tbaa !70, !range !71, !noundef !72
  %73 = trunc i8 %72 to i1
  br i1 %73, label %74, label %86

74:                                               ; preds = %70
  %75 = load i32, ptr %10, align 4, !tbaa !4
  %76 = load i32, ptr %9, align 4, !tbaa !4
  %77 = icmp ugt i32 %75, %76
  %78 = xor i1 %77, true
  %79 = xor i1 %78, true
  %80 = zext i1 %79 to i32
  %81 = sext i32 %80 to i64
  %82 = call i64 @llvm.expect.i64(i64 %81, i64 0)
  %83 = icmp ne i64 %82, 0
  br i1 %83, label %84, label %85

84:                                               ; preds = %74
  br label %111

85:                                               ; preds = %74
  br label %86

86:                                               ; preds = %85, %70
  %87 = load ptr, ptr %11, align 8, !tbaa !67
  %88 = getelementptr inbounds nuw %struct._zval_struct, ptr %87, i32 1
  store ptr %88, ptr %11, align 8, !tbaa !67
  %89 = load ptr, ptr %11, align 8, !tbaa !67
  store ptr %89, ptr %12, align 8, !tbaa !67
  %90 = load ptr, ptr %12, align 8, !tbaa !67
  %91 = load i32, ptr %10, align 4, !tbaa !4
  %92 = call zeroext i1 @zend_parse_arg_str(ptr noundef %90, ptr noundef %5, i1 noundef zeroext false, i32 noundef %91)
  %93 = xor i1 %92, true
  %94 = xor i1 %93, true
  %95 = xor i1 %94, true
  %96 = zext i1 %95 to i32
  %97 = sext i32 %96 to i64
  %98 = call i64 @llvm.expect.i64(i64 %97, i64 0)
  %99 = icmp ne i64 %98, 0
  br i1 %99, label %100, label %101

100:                                              ; preds = %86
  store i32 4, ptr %13, align 4, !tbaa !4
  store i32 9, ptr %17, align 4, !tbaa !4
  br label %111

101:                                              ; preds = %86
  %102 = load i32, ptr %10, align 4, !tbaa !4
  %103 = load i32, ptr %8, align 4, !tbaa !4
  %104 = icmp eq i32 %102, %103
  br i1 %104, label %108, label %105

105:                                              ; preds = %101
  %106 = load i32, ptr %8, align 4, !tbaa !4
  %107 = icmp eq i32 %106, -1
  br label %108

108:                                              ; preds = %105, %101
  %109 = phi i1 [ true, %101 ], [ %107, %105 ]
  call void @llvm.assume(i1 %109)
  br label %110

110:                                              ; preds = %108
  br label %111

111:                                              ; preds = %110, %100, %84, %44
  %112 = load i32, ptr %17, align 4, !tbaa !4
  %113 = icmp ne i32 %112, 0
  %114 = xor i1 %113, true
  %115 = xor i1 %114, true
  %116 = zext i1 %115 to i32
  %117 = sext i32 %116 to i64
  %118 = call i64 @llvm.expect.i64(i64 %117, i64 0)
  %119 = icmp ne i64 %118, 0
  br i1 %119, label %120, label %126

120:                                              ; preds = %111
  %121 = load i32, ptr %17, align 4, !tbaa !4
  %122 = load i32, ptr %10, align 4, !tbaa !4
  %123 = load ptr, ptr %14, align 8, !tbaa !69
  %124 = load i32, ptr %13, align 4, !tbaa !4
  %125 = load ptr, ptr %12, align 8, !tbaa !67
  call void @zend_wrong_parameter_error(i32 noundef %121, i32 noundef %122, ptr noundef %123, i32 noundef %124, ptr noundef %125)
  store i32 1, ptr %18, align 4
  br label %127

126:                                              ; preds = %111
  store i32 0, ptr %18, align 4
  br label %127

127:                                              ; preds = %126, %120
  call void @llvm.lifetime.end.p0(i64 4, ptr %17) #14
  call void @llvm.lifetime.end.p0(i64 1, ptr %16) #14
  call void @llvm.lifetime.end.p0(i64 1, ptr %15) #14
  call void @llvm.lifetime.end.p0(i64 8, ptr %14) #14
  call void @llvm.lifetime.end.p0(i64 4, ptr %13) #14
  call void @llvm.lifetime.end.p0(i64 8, ptr %12) #14
  call void @llvm.lifetime.end.p0(i64 8, ptr %11) #14
  call void @llvm.lifetime.end.p0(i64 4, ptr %10) #14
  call void @llvm.lifetime.end.p0(i64 4, ptr %9) #14
  call void @llvm.lifetime.end.p0(i64 4, ptr %8) #14
  call void @llvm.lifetime.end.p0(i64 4, ptr %7) #14
  call void @llvm.lifetime.end.p0(i64 4, ptr %6) #14
  %128 = load i32, ptr %18, align 4
  switch i32 %128, label %155 [
    i32 0, label %129
  ]

129:                                              ; preds = %127
  br label %130

130:                                              ; preds = %129
  br label %131

131:                                              ; preds = %130
  %132 = load ptr, ptr %5, align 8, !tbaa !32
  %133 = call ptr @zend_get_executed_scope()
  %134 = call ptr @zend_get_constant_ex(ptr noundef %132, ptr noundef %133, i32 noundef 256)
  %135 = icmp ne ptr %134, null
  br i1 %135, label %136, label %145

136:                                              ; preds = %131
  br label %137

137:                                              ; preds = %136
  br label %138

138:                                              ; preds = %137
  %139 = load ptr, ptr %4, align 8, !tbaa !67
  %140 = getelementptr inbounds nuw %struct._zval_struct, ptr %139, i32 0, i32 1
  store i32 3, ptr %140, align 8, !tbaa !31
  br label %141

141:                                              ; preds = %138
  br label %142

142:                                              ; preds = %141
  store i32 1, ptr %18, align 4
  br label %155

143:                                              ; No predecessors!
  br label %144

144:                                              ; preds = %143
  br label %154

145:                                              ; preds = %131
  br label %146

146:                                              ; preds = %145
  br label %147

147:                                              ; preds = %146
  %148 = load ptr, ptr %4, align 8, !tbaa !67
  %149 = getelementptr inbounds nuw %struct._zval_struct, ptr %148, i32 0, i32 1
  store i32 2, ptr %149, align 8, !tbaa !31
  br label %150

150:                                              ; preds = %147
  br label %151

151:                                              ; preds = %150
  store i32 1, ptr %18, align 4
  br label %155

152:                                              ; No predecessors!
  br label %153

153:                                              ; preds = %152
  br label %154

154:                                              ; preds = %153, %144
  store i32 0, ptr %18, align 4
  br label %155

155:                                              ; preds = %154, %151, %142, %127
  call void @llvm.lifetime.end.p0(i64 8, ptr %5) #14
  %156 = load i32, ptr %18, align 4
  switch i32 %156, label %158 [
    i32 0, label %157
    i32 1, label %157
  ]

157:                                              ; preds = %155, %155
  ret void

158:                                              ; preds = %155
  unreachable
}