; Function Attrs: nounwind uwtable
define hidden void @zif_defined(ptr noundef %0, ptr noundef writeonly captures(none) %1) #0 {
  %3 = alloca ptr, align 8
  call void @llvm.lifetime.start.p0(i64 8, ptr nonnull %3) #14
  %4 = getelementptr inbounds nuw i8, ptr %0, i64 44
  %5 = load i32, ptr %4, align 4, !tbaa !28
  %cond = icmp eq i32 %5, 1
  br i1 %cond, label %6, label %.thread52, !prof !94

.thread52:                                        ; preds = %2
  tail call void @zend_wrong_parameters_count_error(i32 noundef 1, i32 noundef 1) #14
  br label %13

6:                                                ; preds = %2
  %7 = getelementptr inbounds nuw i8, ptr %0, i64 80
  %8 = getelementptr inbounds nuw i8, ptr %0, i64 88
  %9 = load i8, ptr %8, align 8, !tbaa !28
  %10 = icmp eq i8 %9, 6
  br i1 %10, label %.thread62, label %zend_parse_arg_str_ex.exit, !prof !69

.thread62:                                        ; preds = %6
  %11 = load ptr, ptr %7, align 8, !tbaa !28
  store ptr %11, ptr %3, align 8, !tbaa !60
  br label %.critedge

zend_parse_arg_str_ex.exit:                       ; preds = %6
  %12 = call zeroext i1 @zend_parse_arg_str_slow(ptr noundef nonnull %7, ptr noundef nonnull %3, i32 noundef 1) #14
  %cond.fr42 = freeze i1 %12
  br i1 %cond.fr42, label %zend_parse_arg_str_ex.exit..critedge_crit_edge, label %13, !prof !64

zend_parse_arg_str_ex.exit..critedge_crit_edge:   ; preds = %zend_parse_arg_str_ex.exit
  %.pre = load ptr, ptr %3, align 8, !tbaa !60
  br label %.critedge

13:                                               ; preds = %zend_parse_arg_str_ex.exit, %.thread52
  %.03361 = phi i32 [ 1, %.thread52 ], [ 9, %zend_parse_arg_str_ex.exit ]
  %.03460 = phi i32 [ 0, %.thread52 ], [ 1, %zend_parse_arg_str_ex.exit ]
  %.03559 = phi ptr [ null, %.thread52 ], [ %7, %zend_parse_arg_str_ex.exit ]
  %.03658 = phi i32 [ 0, %.thread52 ], [ 4, %zend_parse_arg_str_ex.exit ]
  call void @zend_wrong_parameter_error(i32 noundef %.03361, i32 noundef %.03460, ptr noundef null, i32 noundef %.03658, ptr noundef %.03559) #14
  br label %20

.critedge:                                        ; preds = %zend_parse_arg_str_ex.exit..critedge_crit_edge, %.thread62
  %14 = phi ptr [ %.pre, %zend_parse_arg_str_ex.exit..critedge_crit_edge ], [ %11, %.thread62 ]
  %15 = call ptr @zend_get_executed_scope() #14
  %16 = call ptr @zend_get_constant_ex(ptr noundef %14, ptr noundef %15, i32 noundef 256) #14
  %.not39 = icmp eq ptr %16, null
  %17 = getelementptr inbounds nuw i8, ptr %1, i64 8
  br i1 %.not39, label %19, label %18

18:                                               ; preds = %.critedge
  store i32 3, ptr %17, align 8, !tbaa !28
  br label %20

19:                                               ; preds = %.critedge
  store i32 2, ptr %17, align 8, !tbaa !28
  br label %20

20:                                               ; preds = %13, %19, %18
  call void @llvm.lifetime.end.p0(i64 8, ptr nonnull %3) #14
  ret void
}